target datalayout = "e-m:e-p270:32:32-p271:32:32-p272:64:64-i64:64-i128:128-f80:128-n8:16:32:64-S128"
target triple = "x86_64-pc-linux-gnu"

%"class.Luau::TypeIds" = type { %"class.Luau::DenseHashMap", %"class.std::vector.1", i64 }
%"class.Luau::DenseHashMap" = type { %"class.Luau::detail::DenseHashTable" }
%"class.Luau::detail::DenseHashTable" = type <{ ptr, i64, i64, ptr, [8 x i8] }>
%"class.std::vector.1" = type { %"struct.std::_Vector_base.2" }
%"struct.std::_Vector_base.2" = type { %"struct.std::_Vector_base<const Luau::Type *, std::allocator<const Luau::Type *>>::_Vector_impl" }
%"struct.std::_Vector_base<const Luau::Type *, std::allocator<const Luau::Type *>>::_Vector_impl" = type { %"struct.std::_Vector_base<const Luau::Type *, std::allocator<const Luau::Type *>>::_Vector_impl_data" }
%"struct.std::_Vector_base<const Luau::Type *, std::allocator<const Luau::Type *>>::_Vector_impl_data" = type { ptr, ptr, ptr }
%"struct.std::pair.344" = type <{ ptr, i8, [7 x i8] }>
%"struct.Luau::NormalizedFunctionType" = type { i8, %"class.Luau::TypeIds" }

; Function Attrs: mustprogress nounwind uwtable
define linkonce_odr dso_local void @_ZNSt12_Destroy_auxILb1EE9__destroyIPPKN4Luau4TypeEEEvT_S7_(ptr noundef %0, ptr noundef %1) #2 comdat align 2 {
  %3 = alloca ptr, align 8
  %4 = alloca ptr, align 8
  store ptr %0, ptr %3, align 8, !tbaa !62
  store ptr %1, ptr %4, align 8, !tbaa !62
  ret void
}

; Function Attrs: inlinehint mustprogress uwtable
define linkonce_odr dso_local void @_ZSt8_DestroyIPPKN4Luau4TypeEEvT_S5_(ptr noundef %0, ptr noundef %1) #5 comdat {
  %3 = alloca ptr, align 8
  %4 = alloca ptr, align 8
  store ptr %0, ptr %3, align 8, !tbaa !62
  store ptr %1, ptr %4, align 8, !tbaa !62
  %5 = load ptr, ptr %3, align 8, !tbaa !62
  %6 = load ptr, ptr %4, align 8, !tbaa !62
  call void @_ZNSt12_Destroy_auxILb1EE9__destroyIPPKN4Luau4TypeEEEvT_S7_(ptr noundef %5, ptr noundef %6)
  ret void
}

; Function Attrs: mustprogress nounwind uwtable
define linkonce_odr dso_local void @_ZN4Luau6detail16ItemInterfaceMapIPKNS_4TypeEbE4fillEPSt4pairIS4_bEmRKS4_(ptr noundef %0, i64 noundef %1, ptr noundef nonnull align 8 dereferenceable(8) %2) #2 comdat align 2 {
  %4 = alloca ptr, align 8
  %5 = alloca i64, align 8
  %6 = alloca ptr, align 8
  %7 = alloca i64, align 8
  store ptr %0, ptr %4, align 8, !tbaa !84
  store i64 %1, ptr %5, align 8, !tbaa !65
  store ptr %2, ptr %6, align 8, !tbaa !62
  call void @llvm.lifetime.start.p0(i64 8, ptr %7) #4
  store i64 0, ptr %7, align 8, !tbaa !65
  br label %8

8:                                                ; preds = %24, %3
  %9 = load i64, ptr %7, align 8, !tbaa !65
  %10 = load i64, ptr %5, align 8, !tbaa !65
  %11 = icmp ult i64 %9, %10
  br i1 %11, label %13, label %12

12:                                               ; preds = %8
  call void @llvm.lifetime.end.p0(i64 8, ptr %7) #4
  br label %27

13:                                               ; preds = %8
  %14 = load ptr, ptr %4, align 8, !tbaa !84
  %15 = load i64, ptr %7, align 8, !tbaa !65
  %16 = getelementptr inbounds nuw %"struct.std::pair.344", ptr %14, i64 %15
  %17 = getelementptr inbounds nuw %"struct.std::pair.344", ptr %16, i32 0, i32 0
  %18 = load ptr, ptr %6, align 8, !tbaa !62
  %19 = load ptr, ptr %18, align 8, !tbaa !44
  store ptr %19, ptr %17, align 8, !tbaa !44
  %20 = load ptr, ptr %4, align 8, !tbaa !84
  %21 = load i64, ptr %7, align 8, !tbaa !65
  %22 = getelementptr inbounds nuw %"struct.std::pair.344", ptr %20, i64 %21
  %23 = getelementptr inbounds nuw %"struct.std::pair.344", ptr %22, i32 0, i32 1
  store i8 0, ptr %23, align 8, !tbaa !26
  br label %24

24:                                               ; preds = %13
  %25 = load i64, ptr %7, align 8, !tbaa !65
  %26 = add i64 %25, 1
  store i64 %26, ptr %7, align 8, !tbaa !65
  br label %8, !llvm.loop !1617

27:                                               ; preds = %12
  ret void
}

; Function Attrs: mustprogress nounwind uwtable
define linkonce_odr dso_local void @_ZN4Luau6detail16ItemInterfaceMapIPKNS_4TypeEbE7destroyEPSt4pairIS4_bEm(ptr noundef %0, i64 noundef %1) #2 comdat align 2 {
  %3 = alloca ptr, align 8
  %4 = alloca i64, align 8
  %5 = alloca i64, align 8
  store ptr %0, ptr %3, align 8, !tbaa !84
  store i64 %1, ptr %4, align 8, !tbaa !65
  call void @llvm.lifetime.start.p0(i64 8, ptr %5) #4
  store i64 0, ptr %5, align 8, !tbaa !65
  br label %6

6:                                                ; preds = %12, %2
  %7 = load i64, ptr %5, align 8, !tbaa !65
  %8 = load i64, ptr %4, align 8, !tbaa !65
  %9 = icmp ult i64 %7, %8
  br i1 %9, label %11, label %10

10:                                               ; preds = %6
  call void @llvm.lifetime.end.p0(i64 8, ptr %5) #4
  br label %15

11:                                               ; preds = %6
  br label %12

12:                                               ; preds = %11
  %13 = load i64, ptr %5, align 8, !tbaa !65
  %14 = add i64 %13, 1
  store i64 %14, ptr %5, align 8, !tbaa !65
  br label %6, !llvm.loop !721

15:                                               ; preds = %10
  ret void
}

; Function Attrs: mustprogress uwtable
define linkonce_odr dso_local void @_ZN4Luau6detail14DenseHashTableIPKNS_4TypeESt4pairIS4_bES5_IKS4_bENS0_16ItemInterfaceMapIS4_bEENS_16DenseHashPointerESt8equal_toIS4_EE7destroyEv(ptr noundef nonnull align 8 dereferenceable(34) %0) #6 comdat align 2 {
  %2 = alloca ptr, align 8
  store ptr %0, ptr %2, align 8, !tbaa !717
  %3 = load ptr, ptr %2, align 8
  %4 = getelementptr inbounds nuw %"class.Luau::detail::DenseHashTable", ptr %3, i32 0, i32 0
  %5 = load ptr, ptr %4, align 8, !tbaa !719
  %6 = getelementptr inbounds nuw %"class.Luau::detail::DenseHashTable", ptr %3, i32 0, i32 1
  %7 = load i64, ptr %6, align 8, !tbaa !720
  call void @_ZN4Luau6detail16ItemInterfaceMapIPKNS_4TypeEbE7destroyEPSt4pairIS4_bEm(ptr noundef %5, i64 noundef %7)
  %8 = getelementptr inbounds nuw %"class.Luau::detail::DenseHashTable", ptr %3, i32 0, i32 0
  %9 = load ptr, ptr %8, align 8, !tbaa !719
  call void @_ZdlPv(ptr noundef %9) #4
  %10 = getelementptr inbounds nuw %"class.Luau::detail::DenseHashTable", ptr %3, i32 0, i32 0
  store ptr null, ptr %10, align 8, !tbaa !719
  %11 = getelementptr inbounds nuw %"class.Luau::detail::DenseHashTable", ptr %3, i32 0, i32 1
  store i64 0, ptr %11, align 8, !tbaa !720
  ret void
}

; Function Attrs: noinline noreturn nounwind uwtable
define linkonce_odr hidden void @__clang_call_terminate(ptr noundef %0) #13 comdat {
  %2 = call ptr @__cxa_begin_catch(ptr %0) #4
  call void @_ZSt9terminatev() #22
  unreachable
}

; Function Attrs: inlinehint mustprogress uwtable
define linkonce_odr dso_local void @_ZSt8_DestroyIPPKN4Luau4TypeES3_EvT_S5_RSaIT0_E(ptr noundef %0, ptr noundef %1, ptr noundef nonnull align 1 dereferenceable(1) %2) #5 comdat {
  %4 = alloca ptr, align 8
  %5 = alloca ptr, align 8
  %6 = alloca ptr, align 8
  store ptr %0, ptr %4, align 8, !tbaa !62
  store ptr %1, ptr %5, align 8, !tbaa !62
  store ptr %2, ptr %6, align 8, !tbaa !303
  %7 = load ptr, ptr %4, align 8, !tbaa !62
  %8 = load ptr, ptr %5, align 8, !tbaa !62
  call void @_ZSt8_DestroyIPPKN4Luau4TypeEEvT_S5_(ptr noundef %7, ptr noundef %8)
  ret void
}

; Function Attrs: mustprogress nounwind uwtable
define linkonce_odr dso_local noundef nonnull align 1 dereferenceable(1) ptr @_ZNSt12_Vector_baseIPKN4Luau4TypeESaIS3_EE19_M_get_Tp_allocatorEv(ptr noundef nonnull align 8 dereferenceable(24) %0) #2 comdat align 2 {
  %2 = alloca ptr, align 8
  store ptr %0, ptr %2, align 8, !tbaa !713
  %3 = load ptr, ptr %2, align 8
  %4 = getelementptr inbounds nuw %"struct.std::_Vector_base.2", ptr %3, i32 0, i32 0
  ret ptr %4
}

; Function Attrs: mustprogress uwtable
define linkonce_odr dso_local void @_ZN4Luau6detail14DenseHashTableIPKNS_4TypeESt4pairIS4_bES5_IKS4_bENS0_16ItemInterfaceMapIS4_bEENS_16DenseHashPointerESt8equal_toIS4_EE5clearEm(ptr noundef nonnull align 8 dereferenceable(34) %0, i64 noundef %1) #6 comdat align 2 {
  %3 = alloca ptr, align 8
  %4 = alloca i64, align 8
  store ptr %0, ptr %3, align 8, !tbaa !717
  store i64 %1, ptr %4, align 8, !tbaa !65
  %5 = load ptr, ptr %3, align 8
  %6 = getelementptr inbounds nuw %"class.Luau::detail::DenseHashTable", ptr %5, i32 0, i32 2
  %7 = load i64, ptr %6, align 8, !tbaa !949
  %8 = icmp eq i64 %7, 0
  br i1 %8, label %9, label %10

9:                                                ; preds = %2
  br label %28

10:                                               ; preds = %2
  %11 = getelementptr inbounds nuw %"class.Luau::detail::DenseHashTable", ptr %5, i32 0, i32 1
  %12 = load i64, ptr %11, align 8, !tbaa !720
  %13 = load i64, ptr %4, align 8, !tbaa !65
  %14 = icmp ugt i64 %12, %13
  br i1 %14, label %15, label %16

15:                                               ; preds = %10
  call void @_ZN4Luau6detail14DenseHashTableIPKNS_4TypeESt4pairIS4_bES5_IKS4_bENS0_16ItemInterfaceMapIS4_bEENS_16DenseHashPointerESt8equal_toIS4_EE7destroyEv(ptr noundef nonnull align 8 dereferenceable(34) %5)
  br label %26

16:                                               ; preds = %10
  %17 = getelementptr inbounds nuw %"class.Luau::detail::DenseHashTable", ptr %5, i32 0, i32 0
  %18 = load ptr, ptr %17, align 8, !tbaa !719
  %19 = getelementptr inbounds nuw %"class.Luau::detail::DenseHashTable", ptr %5, i32 0, i32 1
  %20 = load i64, ptr %19, align 8, !tbaa !720
  call void @_ZN4Luau6detail16ItemInterfaceMapIPKNS_4TypeEbE7destroyEPSt4pairIS4_bEm(ptr noundef %18, i64 noundef %20)
  %21 = getelementptr inbounds nuw %"class.Luau::detail::DenseHashTable", ptr %5, i32 0, i32 0
  %22 = load ptr, ptr %21, align 8, !tbaa !719
  %23 = getelementptr inbounds nuw %"class.Luau::detail::DenseHashTable", ptr %5, i32 0, i32 1
  %24 = load i64, ptr %23, align 8, !tbaa !720
  %25 = getelementptr inbounds nuw %"class.Luau::detail::DenseHashTable", ptr %5, i32 0, i32 3
  call void @_ZN4Luau6detail16ItemInterfaceMapIPKNS_4TypeEbE4fillEPSt4pairIS4_bEmRKS4_(ptr noundef %22, i64 noundef %24, ptr noundef nonnull align 8 dereferenceable(8) %25)
  br label %26

26:                                               ; preds = %16, %15
  %27 = getelementptr inbounds nuw %"class.Luau::detail::DenseHashTable", ptr %5, i32 0, i32 2
  store i64 0, ptr %27, align 8, !tbaa !949
  br label %28

28:                                               ; preds = %26, %9
  ret void
}

; Function Attrs: mustprogress nounwind uwtable
define linkonce_odr dso_local void @_ZNSt6vectorIPKN4Luau4TypeESaIS3_EE15_M_erase_at_endEPS3_(ptr noundef nonnull align 8 dereferenceable(24) %0, ptr noundef %1) #2 comdat align 2 personality ptr @__gxx_personality_v0 {
  %3 = alloca ptr, align 8
  %4 = alloca ptr, align 8
  %5 = alloca i64, align 8
  store ptr %0, ptr %3, align 8, !tbaa !66
  store ptr %1, ptr %4, align 8, !tbaa !62
  %6 = load ptr, ptr %3, align 8
  call void @llvm.lifetime.start.p0(i64 8, ptr %5) #4
  %7 = getelementptr inbounds nuw %"struct.std::_Vector_base.2", ptr %6, i32 0, i32 0
  %8 = getelementptr inbounds nuw %"struct.std::_Vector_base<const Luau::Type *, std::allocator<const Luau::Type *>>::_Vector_impl_data", ptr %7, i32 0, i32 1
  %9 = load ptr, ptr %8, align 8, !tbaa !73
  %10 = load ptr, ptr %4, align 8, !tbaa !62
  %11 = ptrtoint ptr %9 to i64
  %12 = ptrtoint ptr %10 to i64
  %13 = sub i64 %11, %12
  %14 = sdiv exact i64 %13, 8
  store i64 %14, ptr %5, align 8, !tbaa !65
  %15 = load i64, ptr %5, align 8, !tbaa !65
  %16 = icmp ne i64 %15, 0
  br i1 %16, label %17, label %27

17:                                               ; preds = %2
  %18 = load ptr, ptr %4, align 8, !tbaa !62
  %19 = getelementptr inbounds nuw %"struct.std::_Vector_base.2", ptr %6, i32 0, i32 0
  %20 = getelementptr inbounds nuw %"struct.std::_Vector_base<const Luau::Type *, std::allocator<const Luau::Type *>>::_Vector_impl_data", ptr %19, i32 0, i32 1
  %21 = load ptr, ptr %20, align 8, !tbaa !73
  %22 = call noundef nonnull align 1 dereferenceable(1) ptr @_ZNSt12_Vector_baseIPKN4Luau4TypeESaIS3_EE19_M_get_Tp_allocatorEv(ptr noundef nonnull align 8 dereferenceable(24) %6) #4
  invoke void @_ZSt8_DestroyIPPKN4Luau4TypeES3_EvT_S5_RSaIT0_E(ptr noundef %18, ptr noundef %21, ptr noundef nonnull align 1 dereferenceable(1) %22)
          to label %23 unwind label %28

23:                                               ; preds = %17
  %24 = load ptr, ptr %4, align 8, !tbaa !62
  %25 = getelementptr inbounds nuw %"struct.std::_Vector_base.2", ptr %6, i32 0, i32 0
  %26 = getelementptr inbounds nuw %"struct.std::_Vector_base<const Luau::Type *, std::allocator<const Luau::Type *>>::_Vector_impl_data", ptr %25, i32 0, i32 1
  store ptr %24, ptr %26, align 8, !tbaa !73
  br label %27

27:                                               ; preds = %23, %2
  call void @llvm.lifetime.end.p0(i64 8, ptr %5) #4
  ret void

28:                                               ; preds = %17
  %29 = landingpad { ptr, i32 }
          catch ptr null
  %30 = extractvalue { ptr, i32 } %29, 0
  call void @__clang_call_terminate(ptr %30) #22
  unreachable
}

; Function Attrs: mustprogress uwtable
define linkonce_odr dso_local void @_ZN4Luau12DenseHashMapIPKNS_4TypeEbNS_16DenseHashPointerESt8equal_toIS3_EE5clearEm(ptr noundef nonnull align 8 dereferenceable(40) %0, i64 noundef %1) #6 comdat align 2 {
  %3 = alloca ptr, align 8
  %4 = alloca i64, align 8
  store ptr %0, ptr %3, align 8, !tbaa !63
  store i64 %1, ptr %4, align 8, !tbaa !65
  %5 = load ptr, ptr %3, align 8
  %6 = getelementptr inbounds nuw %"class.Luau::DenseHashMap", ptr %5, i32 0, i32 0
  %7 = load i64, ptr %4, align 8, !tbaa !65
  call void @_ZN4Luau6detail14DenseHashTableIPKNS_4TypeESt4pairIS4_bES5_IKS4_bENS0_16ItemInterfaceMapIS4_bEENS_16DenseHashPointerESt8equal_toIS4_EE5clearEm(ptr noundef nonnull align 8 dereferenceable(34) %6, i64 noundef %7)
  ret void
}

; Function Attrs: mustprogress nounwind uwtable
define linkonce_odr dso_local void @_ZNSt6vectorIPKN4Luau4TypeESaIS3_EE5clearEv(ptr noundef nonnull align 8 dereferenceable(24) %0) #2 comdat align 2 {
  %2 = alloca ptr, align 8
  store ptr %0, ptr %2, align 8, !tbaa !66
  %3 = load ptr, ptr %2, align 8
  %4 = getelementptr inbounds nuw %"struct.std::_Vector_base.2", ptr %3, i32 0, i32 0
  %5 = getelementptr inbounds nuw %"struct.std::_Vector_base<const Luau::Type *, std::allocator<const Luau::Type *>>::_Vector_impl_data", ptr %4, i32 0, i32 0
  %6 = load ptr, ptr %5, align 8, !tbaa !72
  call void @_ZNSt6vectorIPKN4Luau4TypeESaIS3_EE15_M_erase_at_endEPS3_(ptr noundef nonnull align 8 dereferenceable(24) %3, ptr noundef %6) #4
  ret void
}

; Function Attrs: mustprogress uwtable
define dso_local void @_ZN4Luau7TypeIds5clearEv(ptr noundef nonnull align 8 dereferenceable(72) %0) #6 align 2 {
  %2 = alloca ptr, align 8
  store ptr %0, ptr %2, align 8, !tbaa !42
  %3 = load ptr, ptr %2, align 8
  %4 = getelementptr inbounds nuw %"class.Luau::TypeIds", ptr %3, i32 0, i32 1
  call void @_ZNSt6vectorIPKN4Luau4TypeESaIS3_EE5clearEv(ptr noundef nonnull align 8 dereferenceable(24) %4) #4
  %5 = getelementptr inbounds nuw %"class.Luau::TypeIds", ptr %3, i32 0, i32 0
  call void @_ZN4Luau12DenseHashMapIPKNS_4TypeEbNS_16DenseHashPointerESt8equal_toIS3_EE5clearEm(ptr noundef nonnull align 8 dereferenceable(40) %5, i64 noundef 32)
  %6 = getelementptr inbounds nuw %"class.Luau::TypeIds", ptr %3, i32 0, i32 2
  store i64 0, ptr %6, align 8, !tbaa !46
  ret void
}

; Function Attrs: mustprogress uwtable
define dso_local void @_ZN4Luau22NormalizedFunctionType12resetToNeverEv(ptr noundef nonnull align 8 dereferenceable(80) %0) #6 align 2 {
  %2 = alloca ptr, align 8
  store ptr %0, ptr %2, align 8, !tbaa !127
  %3 = load ptr, ptr %2, align 8
  %4 = getelementptr inbounds nuw %"struct.Luau::NormalizedFunctionType", ptr %3, i32 0, i32 0
  store i8 0, ptr %4, align 8, !tbaa !129
  %5 = getelementptr inbounds nuw %"struct.Luau::NormalizedFunctionType", ptr %3, i32 0, i32 1
  call void @_ZN4Luau7TypeIds5clearEv(ptr noundef nonnull align 8 dereferenceable(72) %5)
  ret void
}